; Function Attrs: nounwind uwtable
define internal fastcc range(i32 -1, 1) i32 @siftdown(ptr noundef readonly captures(none) %0, i64 noundef %1, i64 noundef %2) unnamed_addr #0 {
  %4 = getelementptr i8, ptr %0, i64 16
  %.val = load i64, ptr %4, align 8, !tbaa !21
  %.not = icmp slt i64 %2, %.val
  br i1 %.not, label %5, label %.loopexit.sink.split

5:                                                ; preds = %3
  %6 = getelementptr inbounds nuw i8, ptr %0, i64 24
  %7 = icmp sgt i64 %2, %1
  br i1 %7, label %.lr.ph.preheader, label %.loopexit

.lr.ph.preheader:                                 ; preds = %5
  %8 = load ptr, ptr %6, align 8, !tbaa !23
  %9 = getelementptr ptr, ptr %8, i64 %2
  %10 = load ptr, ptr %9, align 8, !tbaa !3
  br label %.lr.ph

.lr.ph:                                           ; preds = %.lr.ph.preheader, %38
  %.03347 = phi i64 [ %12, %38 ], [ %2, %.lr.ph.preheader ]
  %.03446 = phi ptr [ %43, %38 ], [ %10, %.lr.ph.preheader ]
  %.03545 = phi ptr [ %39, %38 ], [ %8, %.lr.ph.preheader ]
  %11 = add nsw i64 %.03347, -1
  %12 = ashr i64 %11, 1
  %13 = getelementptr ptr, ptr %.03545, i64 %12
  %14 = load ptr, ptr %13, align 8, !tbaa !3
  %15 = load i32, ptr %.03446, align 8, !tbaa !22
  %16 = icmp slt i32 %15, 0
  br i1 %16, label %Py_INCREF.exit, label %17

17:                                               ; preds = %.lr.ph
  %18 = add nuw i32 %15, 1
  store i32 %18, ptr %.03446, align 8, !tbaa !22
  br label %Py_INCREF.exit

Py_INCREF.exit:                                   ; preds = %.lr.ph, %17
  %19 = load i32, ptr %14, align 8, !tbaa !22
  %20 = icmp slt i32 %19, 0
  br i1 %20, label %Py_INCREF.exit40, label %21

21:                                               ; preds = %Py_INCREF.exit
  %22 = add nuw i32 %19, 1
  store i32 %22, ptr %14, align 8, !tbaa !22
  br label %Py_INCREF.exit40

Py_INCREF.exit40:                                 ; preds = %Py_INCREF.exit, %21
  %23 = tail call i32 @PyObject_RichCompareBool(ptr noundef nonnull %.03446, ptr noundef nonnull %14, i32 noundef 0) #2
  %24 = load i32, ptr %14, align 8, !tbaa !22
  %.not.i = icmp sgt i32 %24, -1
  br i1 %.not.i, label %25, label %Py_DECREF.exit

25:                                               ; preds = %Py_INCREF.exit40
  %26 = add nsw i32 %24, -1
  store i32 %26, ptr %14, align 8, !tbaa !22
  %27 = icmp eq i32 %26, 0
  br i1 %27, label %28, label %Py_DECREF.exit

28:                                               ; preds = %25
  tail call void @_Py_Dealloc(ptr noundef nonnull %14) #2
  br label %Py_DECREF.exit

Py_DECREF.exit:                                   ; preds = %Py_INCREF.exit40, %25, %28
  %29 = load i32, ptr %.03446, align 8, !tbaa !22
  %.not.i41 = icmp sgt i32 %29, -1
  br i1 %.not.i41, label %30, label %Py_DECREF.exit42

30:                                               ; preds = %Py_DECREF.exit
  %31 = add nsw i32 %29, -1
  store i32 %31, ptr %.03446, align 8, !tbaa !22
  %32 = icmp eq i32 %31, 0
  br i1 %32, label %33, label %Py_DECREF.exit42

33:                                               ; preds = %30
  tail call void @_Py_Dealloc(ptr noundef nonnull %.03446) #2
  br label %Py_DECREF.exit42

Py_DECREF.exit42:                                 ; preds = %Py_DECREF.exit, %30, %33
  %34 = icmp slt i32 %23, 0
  br i1 %34, label %.loopexit, label %35

35:                                               ; preds = %Py_DECREF.exit42
  %.val44 = load i64, ptr %4, align 8, !tbaa !21
  %.not39 = icmp eq i64 %.val, %.val44
  br i1 %.not39, label %36, label %.loopexit.sink.split

36:                                               ; preds = %35
  %37 = icmp eq i32 %23, 0
  br i1 %37, label %.loopexit, label %38

38:                                               ; preds = %36
  %39 = load ptr, ptr %6, align 8, !tbaa !23
  %40 = getelementptr ptr, ptr %39, i64 %12
  %41 = load ptr, ptr %40, align 8, !tbaa !3
  %42 = getelementptr ptr, ptr %39, i64 %.03347
  %43 = load ptr, ptr %42, align 8, !tbaa !3
  store ptr %43, ptr %40, align 8, !tbaa !3
  store ptr %41, ptr %42, align 8, !tbaa !3
  %44 = icmp sgt i64 %12, %1
  br i1 %44, label %.lr.ph, label %.loopexit, !llvm.loop !27

.loopexit.sink.split:                             ; preds = %35, %3
  %PyExc_RuntimeError.sink = phi ptr [ @PyExc_IndexError, %3 ], [ @PyExc_RuntimeError, %35 ]
  %.str.13.sink = phi ptr [ @.str.12, %3 ], [ @.str.13, %35 ]
  %45 = load ptr, ptr %PyExc_RuntimeError.sink, align 8, !tbaa !3
  tail call void @PyErr_SetString(ptr noundef %45, ptr noundef nonnull %.str.13.sink) #2
  br label %.loopexit

.loopexit:                                        ; preds = %Py_DECREF.exit42, %36, %38, %.loopexit.sink.split, %5
  %.0 = phi i32 [ 0, %5 ], [ -1, %.loopexit.sink.split ], [ -1, %Py_DECREF.exit42 ], [ 0, %36 ], [ 0, %38 ]
  ret i32 %.0
}